Certificate:
    Data:
        Version: 3 (0x2)
        Serial Number: 16282693870014907057 (0xe1f7bfce2cab42b1)
    Signature Algorithm: sha256WithRSAEncryption
        Issuer: C=JP, ST=Some-State, O=Internet Widgits Pty Ltd, CN=localhost
        Validity
            Not Before: Jan  3 11:49:08 2021 GMT
            Not After : Jan  3 11:49:08 2024 GMT
        Subject: C=JP, ST=Some-State, O=Internet Widgits Pty Ltd, CN=localhost
        Subject Public Key Info:
            Public Key Algorithm: rsaEncryption
                Public-Key: (2048 bit)
                Modulus:
                    00:d6:38:61:44:a9:90:ab:8c:56:77:b1:ab:57:3f:
                    60:82:b2:fc:04:40:73:94:0a:e7:ee:e2:61:0d:b9:
                    56:b5:11:3b:0c:88:a7:4e:d6:f6:e1:9c:91:78:fd:
                    95:80:66:45:72:06:bc:ab:cc:e8:ab:4f:c5:d0:f4:
                    79:0c:b8:19:77:6a:f3:c6:0d:4c:d7:05:85:dc:03:
                    f0:d6:e9:9c:45:ff:f5:5c:59:9d:d5:6a:e0:60:a3:
                    c6:88:b0:5b:ea:22:a2:5b:a9:86:c6:bf:cf:d3:21:
                    39:67:22:94:4e:81:82:c2:6f:1d:19:2d:29:89:61:
                    44:45:d0:de:82:90:a6:3f:02:86:67:e8:47:a3:28:
                    85:34:72:b0:f1:24:17:6c:48:8a:00:bb:a1:be:f6:
                    2d:f0:db:49:80:44:ec:fa:84:4c:e2:aa:be:38:2a:
                    3a:75:e1:2d:c1:e5:0d:c5:78:3d:0b:50:6d:6f:2f:
                    e9:0e:ae:b9:c1:ad:f6:8e:91:eb:7a:80:6b:d1:9b:
                    a0:bd:00:6c:c4:53:30:92:03:d8:43:11:eb:1a:e3:
                    82:b2:08:27:43:d1:97:b0:43:28:20:15:c7:c5:f1:
                    13:82:19:84:f6:70:6a:7a:93:45:8b:3e:b5:60:12:
                    68:d0:e4:48:70:5d:4b:f4:fd:82:d6:7e:20:19:11:
                    80:c1
                Exponent: 65537 (0x10001)
        X509v3 extensions:
            X509v3 Subject Key Identifier: 
                64:8D:07:6A:46:DC:E2:8A:59:57:DC:88:32:D3:71:AE:43:51:0D:A9
            X509v3 Authority Key Identifier: 
                keyid:64:8D:07:6A:46:DC:E2:8A:59:57:DC:88:32:D3:71:AE:43:51:0D:A9
                DirName:/C=JP/ST=Some-State/O=Internet Widgits Pty Ltd/CN=localhost
                serial:E1:F7:BF:CE:2C:AB:42:B1

            X509v3 Basic Constraints: 
                CA:TRUE
    Signature Algorithm: sha256WithRSAEncryption
         28:6c:72:b6:78:be:97:d3:7a:1a:5b:71:8b:ec:3d:78:d8:c6:
         4c:b7:e5:7e:70:8e:1d:16:5a:2b:2b:08:05:3d:b9:93:ea:58:
         9b:67:e2:62:75:82:1e:4b:70:cc:f4:fa:67:8c:5a:e8:f4:48:
         4b:c8:c7:56:70:99:a0:cf:1f:49:36:2a:1d:70:12:ff:46:ef:
         2c:1a:3d:a1:03:0c:a4:b7:60:87:d2:79:eb:b2:d8:e8:06:4c:
         c6:04:6b:5a:2b:1f:76:49:35:6a:7f:75:2c:58:e9:78:00:be:
         98:b2:87:02:fe:4c:09:5c:14:2b:ed:4a:97:e3:29:28:4b:49:
         5d:e8:19:db:d5:c1:b8:62:c6:c0:a3:c0:ba:f2:83:5a:0b:62:
         fa:e6:65:ae:00:c6:07:9f:35:f9:e1:28:0e:34:15:48:e7:44:
         de:57:47:05:eb:8d:2e:c2:81:67:3f:cf:62:aa:47:19:9a:db:
         f5:05:2d:31:ed:a4:f9:b2:11:7e:e9:98:97:c0:22:01:ff:b5:
         ea:9a:6d:9d:03:8f:45:b4:9c:d2:0c:5f:e9:e3:43:37:f3:72:
         db:38:e4:e4:23:e0:1d:9c:c2:b3:a5:6c:ed:0c:8c:7b:b7:41:
         06:3c:14:ce:ed:2f:74:d3:ed:04:1d:33:e7:6f:74:21:12:35:
         ca:aa:2e:b5
-----BEGIN CERTIFICATE-----
MIID9DCCAtygAwIBAgIJAOH3v84sq0KxMA0GCSqGSIb3DQEBCwUAMFkxCzAJBgNV
BAYTAkpQMRMwEQYDVQQIEwpTb21lLVN0YXRlMSEwHwYDVQQKExhJbnRlcm5ldCBX
aWRnaXRzIFB0eSBMdGQxEjAQBgNVBAMTCWxvY2FsaG9zdDAeFw0yMTAxMDMxMTQ5
MDhaFw0yNDAxMDMxMTQ5MDhaMFkxCzAJBgNVBAYTAkpQMRMwEQYDVQQIEwpTb21l
LVN0YXRlMSEwHwYDVQQKExhJbnRlcm5ldCBXaWRnaXRzIFB0eSBMdGQxEjAQBgNV
BAMTCWxvY2FsaG9zdDCCASIwDQYJKoZIhvcNAQEBBQADggEPADCCAQoCggEBANY4
YUSpkKuMVnexq1c/YIKy/ARAc5QK5+7iYQ25VrUROwyIp07W9uGckXj9lYBmRXIG
vKvM6KtPxdD0eQy4GXdq88YNTNcFhdwD8NbpnEX/9VxZndVq4GCjxoiwW+oiolup
hsa/z9MhOWcilE6BgsJvHRktKYlhREXQ3oKQpj8ChmfoR6MohTRysPEkF2xIigC7
ob72LfDbSYBE7PqETOKqvjgqOnXhLcHlDcV4PQtQbW8v6Q6uucGt9o6R63qAa9Gb
oL0AbMRTMJID2EMR6xrjgrIIJ0PRl7BDKCAVx8XxE4IZhPZwanqTRYs+tWASaNDk
SHBdS/T9gtZ+IBkRgMECAwEAAaOBvjCBuzAdBgNVHQ4EFgQUZI0Hakbc4opZV9yI
MtNxrkNRDakwgYsGA1UdIwSBgzCBgIAUZI0Hakbc4opZV9yIMtNxrkNRDamhXaRb
MFkxCzAJBgNVBAYTAkpQMRMwEQYDVQQIEwpTb21lLVN0YXRlMSEwHwYDVQQKExhJ
bnRlcm5ldCBXaWRnaXRzIFB0eSBMdGQxEjAQBgNVBAMTCWxvY2FsaG9zdIIJAOH3
v84sq0KxMAwGA1UdEwQFMAMBAf8wDQYJKoZIhvcNAQELBQADggEBAChscrZ4vpfT
ehpbcYvsPXjYxky35X5wjh0WWisrCAU9uZPqWJtn4mJ1gh5LcMz0+meMWuj0SEvI
x1ZwmaDPH0k2Kh1wEv9G7ywaPaEDDKS3YIfSeeuy2OgGTMYEa1orH3ZJNWp/dSxY
6XgAvpiyhwL+TAlcFCvtSpfjKShLSV3oGdvVwbhixsCjwLryg1oLYvrmZa4Axgef
NfnhKA40FUjnRN5XRwXrjS7CgWc/z2KqRxma2/UFLTHtpPmyEX7pmJfAIgH/teqa
bZ0Dj0W0nNIMX+njQzfzcts45OQj4B2cwrOlbO0MjHu3QQY8FM7tL3TT7QQdM+dv
dCESNcqqLrU=
-----END CERTIFICATE-----
