Certificate:
    Data:
        Version: 3 (0x2)
        Serial Number: 16282693870014907058 (0xe1f7bfce2cab42b2)
    Signature Algorithm: sha256WithRSAEncryption
        Issuer: C=JP, ST=Some-State, O=Internet Widgits Pty Ltd, CN=localhost
        Validity
            Not Before: Jan  3 11:52:00 2021 GMT
            Not After : Jan  3 11:52:00 2022 GMT
        Subject: C=JP, ST=Some-State, O=Internet Widgits Pty Ltd, CN=localhost
        Subject Public Key Info:
            Public Key Algorithm: rsaEncryption
                Public-Key: (2048 bit)
                Modulus:
                    00:c1:d9:63:77:4a:1e:ae:99:6c:84:0b:2a:04:05:
                    5f:61:c4:e0:34:62:62:45:cd:b9:2d:4a:40:99:79:
                    e5:01:cb:82:91:65:87:33:ec:04:a8:1d:47:2a:37:
                    41:cd:90:a6:56:af:85:26:cd:de:49:aa:4e:75:b1:
                    c5:0c:9e:98:b3:ee:b8:1b:7b:64:9a:3a:23:2f:16:
                    bf:af:1c:d1:33:1a:06:0f:d9:fd:e2:95:71:dd:c3:
                    c2:6d:57:5b:80:65:21:91:3e:62:da:17:30:7b:34:
                    db:c6:83:5f:99:c2:57:6d:4d:fc:87:1c:f1:cb:4a:
                    2c:b7:94:dd:6a:fc:91:b9:98:d4:24:ec:59:59:fd:
                    84:58:f1:6c:4e:f8:2a:d3:38:b0:fd:a0:28:24:f4:
                    f7:8f:13:8a:de:72:75:c9:61:2b:1e:27:80:7f:94:
                    1b:22:d7:ff:93:0e:7d:12:57:77:0e:ad:b3:f0:16:
                    92:78:7a:9e:39:b0:ed:e8:1b:1b:27:a7:29:a2:fe:
                    c2:e4:e5:7c:c2:7c:a7:b5:a2:18:df:7a:99:eb:7e:
                    2b:54:d8:9b:25:96:72:48:9a:0d:f0:34:34:9e:4c:
                    9c:58:7c:26:ef:a1:bc:44:be:05:ac:df:45:d7:5e:
                    ab:d6:e4:20:f0:34:98:7d:e7:58:af:a4:21:51:3d:
                    fd:cb
                Exponent: 65537 (0x10001)
        X509v3 extensions:
            X509v3 Basic Constraints: 
                CA:TRUE
            Netscape Comment: 
                OpenSSL Generated Certificate
            X509v3 Subject Key Identifier: 
                3A:5D:3E:6E:69:12:C6:E5:20:99:41:2E:3A:6B:D5:A3:3B:CD:46:A2
            X509v3 Authority Key Identifier: 
                keyid:64:8D:07:6A:46:DC:E2:8A:59:57:DC:88:32:D3:71:AE:43:51:0D:A9

    Signature Algorithm: sha256WithRSAEncryption
         a9:cf:0a:24:1a:28:bc:4c:cf:7e:26:8b:ba:a7:f3:8a:fe:0d:
         13:b9:6d:02:6f:2a:4a:57:f6:ea:13:7e:fb:55:20:88:5b:6e:
         ce:02:61:d6:49:17:c8:84:a8:4d:0a:8d:2c:f6:53:b7:e8:2b:
         1f:71:41:8a:14:34:a1:8f:e6:e4:ff:7c:57:92:f7:1f:48:a2:
         19:3f:da:cd:12:43:58:fc:31:4c:f8:e2:7d:e5:4b:f1:cf:ee:
         8b:6c:70:8b:95:96:83:d3:29:db:2e:fa:b2:e1:2e:e8:c9:7e:
         ab:a4:f3:98:72:00:78:1b:58:00:aa:0f:b0:4e:69:6d:33:11:
         ac:85:52:81:5b:38:e5:e2:be:75:2a:df:6d:aa:25:c4:90:fe:
         9f:b2:d1:5c:a0:68:b5:bc:80:8a:1f:e7:f8:44:74:25:bb:14:
         29:99:51:16:2f:53:26:12:f1:3e:8d:f2:89:6c:36:d1:4e:e4:
         c7:53:c5:86:7a:53:c9:11:d0:34:ca:4d:8e:ce:f2:e5:50:27:
         50:a4:fb:e0:cf:c8:81:d1:17:1d:3d:4b:17:c3:85:1d:e2:e1:
         53:5a:40:93:6e:a5:8d:71:d2:59:43:06:5b:91:5b:ea:a1:11:
         8d:51:b1:35:4f:34:41:79:a1:f2:15:fa:5c:05:50:8d:d9:38:
         43:f2:7f:29
-----BEGIN CERTIFICATE-----
MIIDszCCApugAwIBAgIJAOH3v84sq0KyMA0GCSqGSIb3DQEBCwUAMFkxCzAJBgNV
BAYTAkpQMRMwEQYDVQQIEwpTb21lLVN0YXRlMSEwHwYDVQQKExhJbnRlcm5ldCBX
aWRnaXRzIFB0eSBMdGQxEjAQBgNVBAMTCWxvY2FsaG9zdDAeFw0yMTAxMDMxMTUy
MDBaFw0yMjAxMDMxMTUyMDBaMFkxCzAJBgNVBAYTAkpQMRMwEQYDVQQIEwpTb21l
LVN0YXRlMSEwHwYDVQQKExhJbnRlcm5ldCBXaWRnaXRzIFB0eSBMdGQxEjAQBgNV
BAMTCWxvY2FsaG9zdDCCASIwDQYJKoZIhvcNAQEBBQADggEPADCCAQoCggEBAMHZ
Y3dKHq6ZbIQLKgQFX2HE4DRiYkXNuS1KQJl55QHLgpFlhzPsBKgdRyo3Qc2Qplav
hSbN3kmqTnWxxQyemLPuuBt7ZJo6Iy8Wv68c0TMaBg/Z/eKVcd3Dwm1XW4BlIZE+
YtoXMHs028aDX5nCV21N/Icc8ctKLLeU3Wr8kbmY1CTsWVn9hFjxbE74KtM4sP2g
KCT0948Tit5ydclhKx4ngH+UGyLX/5MOfRJXdw6ts/AWknh6njmw7egbGyenKaL+
wuTlfMJ8p7WiGN96met+K1TYmyWWckiaDfA0NJ5MnFh8Ju+hvES+BazfRddeq9bk
IPA0mH3nWK+kIVE9/csCAwEAAaN+MHwwDAYDVR0TBAUwAwEB/zAsBglghkgBhvhC
AQ0EHxYdT3BlblNTTCBHZW5lcmF0ZWQgQ2VydGlmaWNhdGUwHQYDVR0OBBYEFDpd
Pm5pEsblIJlBLjpr1aM7zUaiMB8GA1UdIwQYMBaAFGSNB2pG3OKKWVfciDLTca5D
UQ2pMA0GCSqGSIb3DQEBCwUAA4IBAQCpzwokGii8TM9+Jou6p/OK/g0TuW0CbypK
V/bqE377VSCIW27OAmHWSRfIhKhNCo0s9lO36CsfcUGKFDShj+bk/3xXkvcfSKIZ
P9rNEkNY/DFM+OJ95Uvxz+6LbHCLlZaD0ynbLvqy4S7oyX6rpPOYcgB4G1gAqg+w
TmltMxGshVKBWzjl4r51Kt9tqiXEkP6fstFcoGi1vICKH+f4RHQluxQpmVEWL1Mm
EvE+jfKJbDbRTuTHU8WGelPJEdA0yk2OzvLlUCdQpPvgz8iB0RcdPUsXw4Ud4uFT
WkCTbqWNcdJZQwZbkVvqoRGNUbE1TzRBeaHyFfpcBVCN2ThD8n8p
-----END CERTIFICATE-----
