Certificate:
    Data:
        Version: 3 (0x2)
        Serial Number: 16282693870014907060 (0xe1f7bfce2cab42b4)
    Signature Algorithm: sha256WithRSAEncryption
        Issuer: C=JP, ST=Some-State, O=Internet Widgits Pty Ltd, CN=localhost
        Validity
            Not Before: Jan  3 12:14:13 2021 GMT
            Not After : Jan  3 12:14:13 2022 GMT
        Subject: C=AU, ST=Some-State, O=Internet Widgits Pty Ltd, CN=mytest
        Subject Public Key Info:
            Public Key Algorithm: rsaEncryption
                Public-Key: (2048 bit)
                Modulus:
                    00:cb:9d:81:1c:19:b3:be:a7:78:a2:ba:14:2d:83:
                    57:03:0b:72:9e:0e:5f:e1:38:b8:12:73:bc:c4:1b:
                    33:b0:02:08:52:65:10:b5:6b:ef:b0:14:4e:81:f9:
                    c0:90:f3:5a:61:1c:8a:2f:e2:9d:6a:bf:7e:ea:41:
                    b5:a7:50:f5:a8:59:f7:20:aa:54:f2:84:25:99:2d:
                    f2:7f:a4:3b:36:a1:20:fd:7b:d7:25:08:d0:7f:e3:
                    66:31:af:b2:24:e3:94:49:aa:86:30:d7:6b:e6:29:
                    ff:21:28:11:4a:e9:34:1c:47:57:e5:a0:70:44:fd:
                    97:2b:86:f3:01:1b:45:5f:e0:7c:94:53:7e:b2:e7:
                    d6:3a:b4:30:e0:51:82:11:4b:03:0d:54:9f:94:ae:
                    2b:1f:7e:64:25:fc:ed:90:3d:78:79:53:de:91:3a:
                    64:85:ff:56:e3:e2:f7:0e:45:3b:51:91:2b:8e:88:
                    79:68:d4:b4:d8:00:9e:96:25:e5:a7:df:bc:a5:13:
                    9e:12:cf:f2:45:3c:3b:e4:72:ef:76:de:ee:98:c1:
                    3f:5c:76:51:7f:0b:27:1e:1c:a6:ca:46:65:9e:a8:
                    e1:f1:6d:b2:6e:4d:97:4b:b7:c7:f2:d8:d6:de:70:
                    23:eb:8c:d7:96:64:a6:13:20:d3:b6:51:29:26:2a:
                    e3:a9
                Exponent: 65537 (0x10001)
        X509v3 extensions:
            X509v3 Basic Constraints: 
                CA:FALSE
            Netscape Comment: 
                OpenSSL Generated Certificate
            X509v3 Subject Key Identifier: 
                61:E1:F8:D3:9B:CE:4B:31:B7:97:C6:7A:23:CA:C1:45:CE:31:CB:9C
            X509v3 Authority Key Identifier: 
                keyid:64:8D:07:6A:46:DC:E2:8A:59:57:DC:88:32:D3:71:AE:43:51:0D:A9

    Signature Algorithm: sha256WithRSAEncryption
         37:9a:74:ea:3a:b4:61:5d:13:b2:75:49:a0:3b:cb:31:3c:44:
         41:13:6d:7c:3d:d2:57:c3:3d:d7:de:28:fe:41:18:e5:ee:59:
         52:e9:2d:c9:07:7f:66:7b:49:dc:39:a4:b2:7a:fd:18:13:da:
         41:6e:8b:dc:7e:bb:1c:94:6a:c5:20:8a:d5:03:81:6b:bc:84:
         19:4f:c7:d5:25:d2:f1:05:f3:a3:45:d1:a5:1e:e7:6d:af:05:
         78:71:c2:a3:40:ca:ee:3c:14:97:21:3e:94:15:9f:6a:30:17:
         14:39:75:75:d3:cd:ad:e4:e4:49:70:d9:f3:ab:34:8b:a7:e3:
         2c:34:ff:d3:98:0e:c0:ad:68:9a:e9:65:1a:88:36:ed:a4:78:
         9d:4c:8a:89:d3:78:ac:55:44:13:b0:c2:b1:4c:9a:5b:85:8c:
         03:44:f8:48:c9:8c:10:4d:66:e3:a4:2d:62:dc:bb:62:e8:6a:
         8e:9b:ef:e2:c1:a3:74:87:49:9c:62:28:ee:ab:a3:88:3c:00:
         48:c1:22:f8:75:4b:23:07:a0:82:15:1c:a5:8d:e8:50:e9:cd:
         87:f5:4f:36:01:2d:36:98:ce:d6:53:2f:af:ca:3d:2f:d1:bd:
         d1:59:36:8c:23:0e:33:41:fc:55:ae:a3:e5:6b:bc:2d:1a:ba:
         52:5f:35:13
-----BEGIN CERTIFICATE-----
MIIDrTCCApWgAwIBAgIJAOH3v84sq0K0MA0GCSqGSIb3DQEBCwUAMFkxCzAJBgNV
BAYTAkpQMRMwEQYDVQQIEwpTb21lLVN0YXRlMSEwHwYDVQQKExhJbnRlcm5ldCBX
aWRnaXRzIFB0eSBMdGQxEjAQBgNVBAMTCWxvY2FsaG9zdDAeFw0yMTAxMDMxMjE0
MTNaFw0yMjAxMDMxMjE0MTNaMFYxCzAJBgNVBAYTAkFVMRMwEQYDVQQIEwpTb21l
LVN0YXRlMSEwHwYDVQQKExhJbnRlcm5ldCBXaWRnaXRzIFB0eSBMdGQxDzANBgNV
BAMTBm15dGVzdDCCASIwDQYJKoZIhvcNAQEBBQADggEPADCCAQoCggEBAMudgRwZ
s76neKK6FC2DVwMLcp4OX+E4uBJzvMQbM7ACCFJlELVr77AUToH5wJDzWmEcii/i
nWq/fupBtadQ9ahZ9yCqVPKEJZkt8n+kOzahIP171yUI0H/jZjGvsiTjlEmqhjDX
a+Yp/yEoEUrpNBxHV+WgcET9lyuG8wEbRV/gfJRTfrLn1jq0MOBRghFLAw1Un5Su
Kx9+ZCX87ZA9eHlT3pE6ZIX/VuPi9w5FO1GRK46IeWjUtNgAnpYl5affvKUTnhLP
8kU8O+Ry73be7pjBP1x2UX8LJx4cpspGZZ6o4fFtsm5Nl0u3x/LY1t5wI+uM15Zk
phMg07ZRKSYq46kCAwEAAaN7MHkwCQYDVR0TBAIwADAsBglghkgBhvhCAQ0EHxYd
T3BlblNTTCBHZW5lcmF0ZWQgQ2VydGlmaWNhdGUwHQYDVR0OBBYEFGHh+NObzksx
t5fGeiPKwUXOMcucMB8GA1UdIwQYMBaAFGSNB2pG3OKKWVfciDLTca5DUQ2pMA0G
CSqGSIb3DQEBCwUAA4IBAQA3mnTqOrRhXROydUmgO8sxPERBE218PdJXwz3X3ij+
QRjl7llS6S3JB39me0ncOaSyev0YE9pBbovcfrsclGrFIIrVA4FrvIQZT8fVJdLx
BfOjRdGlHudtrwV4ccKjQMruPBSXIT6UFZ9qMBcUOXV1082t5ORJcNnzqzSLp+Ms
NP/TmA7ArWia6WUaiDbtpHidTIqJ03isVUQTsMKxTJpbhYwDRPhIyYwQTWbjpC1i
3Lti6GqOm+/iwaN0h0mcYijuq6OIPABIwSL4dUsjB6CCFRyljehQ6c2H9U82AS02
mM7WUy+vyj0v0b3RWTaMIw4zQfxVrqPla7wtGrpSXzUT
-----END CERTIFICATE-----
